BL51 BANKED LINKER/LOCATER V6.22                                                        11/08/2019  16:56:36  PAGE 1


BL51 BANKED LINKER/LOCATER V6.22, INVOKED BY:
C:\KEIL_V5_C51\C51\BIN\BL51.EXE VendorDefinedDev.obj, Debug.obj TO CH554DEMO


MEMORY MODEL: LARGE


INPUT MODULES INCLUDED:
  VendorDefinedDev.obj (VENDORDEFINEDDEV)
  Debug.obj (DEBUG)
  C:\KEIL_V5_C51\C51\LIB\C51L.LIB (?C_STARTUP)
  C:\KEIL_V5_C51\C51\LIB\C51L.LIB (?C?COPY)
  C:\KEIL_V5_C51\C51\LIB\C51L.LIB (?C?IILDX)
  C:\KEIL_V5_C51\C51\LIB\C51L.LIB (?C?ULDIV)
  C:\KEIL_V5_C51\C51\LIB\C51L.LIB (?C?LSTXDATA)
  C:\KEIL_V5_C51\C51\LIB\C51L.LIB (?C?LSTKXDATA)
  C:\KEIL_V5_C51\C51\LIB\C51L.LIB (PRINTF)
  C:\KEIL_V5_C51\C51\LIB\C51L.LIB (_GETKEY)
  C:\KEIL_V5_C51\C51\LIB\C51L.LIB (?C_INIT)
  C:\KEIL_V5_C51\C51\LIB\C51L.LIB (?C?CLDPTR)
  C:\KEIL_V5_C51\C51\LIB\C51L.LIB (?C?CLDOPTR)
  C:\KEIL_V5_C51\C51\LIB\C51L.LIB (?C?CSTPTR)
  C:\KEIL_V5_C51\C51\LIB\C51L.LIB (?C?PLDIXDATA)
  C:\KEIL_V5_C51\C51\LIB\C51L.LIB (?C?PSTXDATA)
  C:\KEIL_V5_C51\C51\LIB\C51L.LIB (?C?CCASE)
  C:\KEIL_V5_C51\C51\LIB\C51L.LIB (PUTCHAR)


LINK MAP OF MODULE:  CH554DEMO (VENDORDEFINEDDEV)


            TYPE    BASE      LENGTH    RELOCATION   SEGMENT NAME
            -----------------------------------------------------

            * * * * * * *   D A T A   M E M O R Y   * * * * * * *
            REG     0000H     0008H     ABSOLUTE     "REG BANK 0"
            REG     0008H     0008H     ABSOLUTE     "REG BANK 1"
            DATA    0010H     000AH     UNIT         _DATA_GROUP_
                    001AH     0006H                  *** GAP ***
            BIT     0020H.0   0002H.2   UNIT         _BIT_GROUP_
                    0022H.2   0000H.6                *** GAP ***
            IDATA   0023H     0001H     UNIT         ?STACK

            * * * * * * *  X D A T A   M E M O R Y  * * * * * * *
            XDATA   0000H     00D0H     UNIT         ?XD?VENDORDEFINEDDEV
            XDATA   00D0H     0052H     UNIT         _XDATA_GROUP_

            * * * * * * *   C O D E   M E M O R Y   * * * * * * *
            CODE    0000H     0003H     ABSOLUTE     
            CODE    0003H     003AH     UNIT         ?PR?INITUSB_DEVICE?VENDORDEFINEDDEV
            CODE    003DH     0005H     UNIT         ?C_INITSEG
                    0042H     0001H                  *** GAP ***
            CODE    0043H     0003H     ABSOLUTE     
            CODE    0046H     03A2H     UNIT         ?PR?USB_DEVICEINTERRUPT?VENDORDEFINEDDEV
            CODE    03E8H     0365H     UNIT         ?PR?PRINTF?PRINTF
            CODE    074DH     02B5H     UNIT         ?C?LIB_CODE
            CODE    0A02H     0095H     UNIT         ?PR?MINITSTDIO?DEBUG
            CODE    0A97H     0094H     UNIT         ?CO?VENDORDEFINEDDEV
BL51 BANKED LINKER/LOCATER V6.22                                                      11/08/2019  16:56:36  PAGE 2


            CODE    0B2BH     008CH     UNIT         ?C_C51STARTUP
            CODE    0BB7H     007DH     UNIT         ?PR?MAIN?VENDORDEFINEDDEV
            CODE    0C34H     0027H     UNIT         ?PR?PUTCHAR?PUTCHAR
            CODE    0C5BH     0019H     UNIT         ?PR?_MDELAYMS?DEBUG
            CODE    0C74H     0017H     UNIT         ?PR?_CH554WDTMODESELECT?DEBUG
            CODE    0C8BH     0012H     UNIT         ?PR?CFGFSYS?DEBUG
            CODE    0C9DH     000EH     UNIT         ?PR?_MDELAYUS?DEBUG
            CODE    0CABH     000AH     UNIT         ?PR?_GETKEY?_GETKEY
            CODE    0CB5H     0008H     UNIT         ?PR?CH554UART0RCVBYTE?DEBUG
            CODE    0CBDH     0008H     UNIT         ?PR?_CH554UART0SENDBYTE?DEBUG
            CODE    0CC5H     0004H     UNIT         ?PR?CH554UART0ALTER?DEBUG
            CODE    0CC9H     0003H     UNIT         ?PR?_CH554WDTFEED?DEBUG



OVERLAY MAP OF MODULE:   CH554DEMO (VENDORDEFINEDDEV)


SEGMENT                                             BIT_GROUP          DATA_GROUP          XDATA_GROUP
  +--> CALLED SEGMENT                            START    LENGTH     START    LENGTH     START    LENGTH
--------------------------------------------------------------------------------------------------------
?PR?USB_DEVICEINTERRUPT?VENDORDEFINEDDEV         -----    -----      -----    -----      00D0H    0001H
  +--> ?CO?VENDORDEFINEDDEV
  +--> ?PR?PRINTF?PRINTF

?PR?PRINTF?PRINTF                                0021H.1  0001H.1    0015H    0005H      00FAH    0028H
  +--> ?PR?PUTCHAR?PUTCHAR

*** NEW ROOT ***************************************************

?C_C51STARTUP                                    -----    -----      -----    -----      -----    -----
  +--> ?PR?MAIN?VENDORDEFINEDDEV
  +--> ?C_INITSEG

?PR?MAIN?VENDORDEFINEDDEV                        -----    -----      -----    -----      00F9H    0001H
  +--> ?PR?CFGFSYS?DEBUG
  +--> ?PR?_MDELAYMS?DEBUG
  +--> ?PR?MINITSTDIO?DEBUG
  +--> ?CO?VENDORDEFINEDDEV
  +--> ?PR?PRINTF?PRINTF
  +--> ?PR?INITUSB_DEVICE?VENDORDEFINEDDEV
  +--> ?PR?_GETKEY?_GETKEY

?PR?_MDELAYMS?DEBUG                              -----    -----      -----    -----      -----    -----
  +--> ?PR?_MDELAYUS?DEBUG

?PR?MINITSTDIO?DEBUG                             -----    -----      -----    -----      00FAH    0005H



SYMBOL TABLE OF MODULE:  CH554DEMO (VENDORDEFINEDDEV)

  VALUE           TYPE          NAME
  ----------------------------------

  -------         MODULE        VENDORDEFINEDDEV
  C:0000H         SYMBOL        _ICE_DUMMY_
BL51 BANKED LINKER/LOCATER V6.22                                                      11/08/2019  16:56:36  PAGE 3


  D:0090H         PUBLIC        P1
  D:00E2H         PUBLIC        USB_CTRL
  D:00B0H         PUBLIC        P3
  X:0005H         PUBLIC        UsbConfig
  B:00A8H.7       PUBLIC        EA
  B:00D8H.0       PUBLIC        UIF_BUS_RST
  D:00E8H         PUBLIC        IE_EX
  B:00D8H.7       PUBLIC        U_IS_NAK
  D:00A8H         PUBLIC        IE
  D:00DDH         PUBLIC        UEP0_T_LEN
  D:00E3H         PUBLIC        USB_DEV_AD
  D:00D3H         PUBLIC        UEP1_T_LEN
  D:00D5H         PUBLIC        UEP2_T_LEN
  D:00A2H         PUBLIC        XBUS_AUX
  D:00B8H         PUBLIC        IP
  B:00D8H.6       PUBLIC        U_TOG_OK
  D:00D8H         PUBLIC        USB_INT_FG
  C:0BB7H         PUBLIC        main
  D:00E1H         PUBLIC        USB_INT_EN
  B:00D8H.1       PUBLIC        UIF_TRANSFER
  D:0087H         PUBLIC        PCON
  D:00DCH         PUBLIC        UEP0_CTRL
  D:00D2H         PUBLIC        UEP1_CTRL
  D:00D4H         PUBLIC        UEP2_CTRL
  D:0098H         PUBLIC        SCON
  D:0088H         PUBLIC        TCON
  C:0003H         PUBLIC        InitUSB_Device
  D:00DBH         PUBLIC        USB_RX_LEN
  D:00F8H         PUBLIC        SPI0_STAT
  D:00DAH         PUBLIC        USB_MIS_ST
  D:00D9H         PUBLIC        USB_INT_ST
  C:0B0DH         PUBLIC        MyLangDescr
  D:00A9H         PUBLIC        WAKE_CTRL
  X:0006H         PUBLIC        Ep0Buffer
  X:0010H         PUBLIC        Ep1Buffer
  X:0050H         PUBLIC        Ep2Buffer
  D:00D1H         PUBLIC        UDEV_CTRL
  C:0AE6H         PUBLIC        MyCfgDescr
  D:00ECH         PUBLIC        UEP0_DMA
  D:00EEH         PUBLIC        UEP1_DMA
  D:00E4H         PUBLIC        UEP2_DMA
  B:00E8H.2       PUBLIC        IE_USB
  C:0AD4H         PUBLIC        MyDevDescr
  D:0080H         PUBLIC        ADC_CTRL
  D:00A1H         PUBLIC        SAFE_MOD
  D:00C0H         PUBLIC        SCON1
  D:00C8H         PUBLIC        T2CON
  C:0B11H         PUBLIC        MyManuInfo
  B:00D8H.2       PUBLIC        UIF_SUSPEND
  C:0B1FH         PUBLIC        MyProdInfo
  D:00EBH         PUBLIC        UEP2_3_MOD
  D:00EAH         PUBLIC        UEP4_1_MOD
  C:0046H         PUBLIC        USB_DeviceInterrupt
  D:00D0H         PUBLIC        PSW
  -------         PROC          USB_DEVICEINTERRUPT
  -------         DO            
  D:000FH         SYMBOL        i
BL51 BANKED LINKER/LOCATER V6.22                                                      11/08/2019  16:56:36  PAGE 4


  X:00D0H         SYMBOL        len
  X:0000H         SYMBOL        SetupReqCode
  X:0001H         SYMBOL        SetupLen
  X:0002H         SYMBOL        pDescr
  -------         ENDDO         
  C:0046H         LINE#         51
  C:0053H         LINE#         55
  C:0059H         LINE#         56
  C:005FH         LINE#         67
  C:005FH         LINE#         68
  C:0080H         LINE#         69
  C:0080H         LINE#         70
  C:0086H         LINE#         72
  C:008CH         LINE#         73
  C:0098H         LINE#         74
  C:00B1H         LINE#         75
  C:00B4H         LINE#         76
  C:00B6H         LINE#         77
  C:00B9H         LINE#         78
  C:00B9H         LINE#         79
  C:00BCH         LINE#         80
  C:00BCH         LINE#         82
  C:00C4H         LINE#         83
  C:00C7H         LINE#         84
  C:00C7H         LINE#         86
  C:00CFH         LINE#         87
  C:00D2H         LINE#         88
  C:00D2H         LINE#         89
  C:00D8H         LINE#         90
  C:00E0H         LINE#         91
  C:00E8H         LINE#         92
  C:00FDH         LINE#         93
  C:0102H         LINE#         94
  C:010AH         LINE#         95
  C:0112H         LINE#         96
  C:0112H         LINE#         97
  C:0115H         LINE#         98
  C:0145H         LINE#         99
  C:0145H         LINE#         100
  C:0154H         LINE#         101
  C:0154H         LINE#         102
  C:0162H         LINE#         103
  C:0168H         LINE#         104
  C:016AH         LINE#         105
  C:016AH         LINE#         106
  C:0178H         LINE#         107
  C:017EH         LINE#         108
  C:0180H         LINE#         109
  C:0180H         LINE#         110
  C:018DH         LINE#         111
  C:018DH         LINE#         112
  C:019BH         LINE#         113
  C:01A1H         LINE#         114
  C:01A3H         LINE#         115
  C:01A3H         LINE#         116
  C:01B1H         LINE#         117
  C:01B7H         LINE#         118
BL51 BANKED LINKER/LOCATER V6.22                                                      11/08/2019  16:56:36  PAGE 5


  C:01B9H         LINE#         119
  C:01B9H         LINE#         120
  C:01C7H         LINE#         121
  C:01CDH         LINE#         122
  C:01CFH         LINE#         123
  C:01CFH         LINE#         126
  C:01CFH         LINE#         127
  C:01CFH         LINE#         128
  C:01CFH         LINE#         129
  C:01D5H         LINE#         130
  C:01D5H         LINE#         131
  C:01D5H         LINE#         132
  C:01E4H         LINE#         133
  C:01F7H         LINE#         134
  C:020DH         LINE#         135
  C:021EH         LINE#         136
  C:0229H         LINE#         137
  C:022CH         LINE#         138
  C:022CH         LINE#         139
  C:0234H         LINE#         140
  C:0237H         LINE#         141
  C:0237H         LINE#         142
  C:023DH         LINE#         143
  C:0249H         LINE#         144
  C:024BH         LINE#         145
  C:024BH         LINE#         146
  C:0253H         LINE#         147
  C:0256H         LINE#         148
  C:0256H         LINE#         149
  C:0260H         LINE#         150
  C:0271H         LINE#         151
  C:0271H         LINE#         152
  C:0279H         LINE#         153
  C:027BH         LINE#         154
  C:027BH         LINE#         155
  C:027EH         LINE#         156
  C:0280H         LINE#         157
  C:0280H         LINE#         158
  C:0288H         LINE#         159
  C:028AH         LINE#         160
  C:028AH         LINE#         161
  C:028DH         LINE#         162
  C:028FH         LINE#         163
  C:028FH         LINE#         164
  C:028FH         LINE#         165
  C:0291H         LINE#         166
  C:0291H         LINE#         167
  C:0297H         LINE#         168
  C:0299H         LINE#         169
  C:0299H         LINE#         170
  C:029EH         LINE#         171
  C:02ADH         LINE#         172
  C:02AFH         LINE#         173
  C:02AFH         LINE#         174
  C:02B4H         LINE#         175
  C:02B6H         LINE#         176
  C:02C8H         LINE#         177
BL51 BANKED LINKER/LOCATER V6.22                                                      11/08/2019  16:56:36  PAGE 6


  C:02CAH         LINE#         178
  C:02CCH         LINE#         179
  C:02CCH         LINE#         180
  C:02D2H         LINE#         182
  C:02E4H         LINE#         184
  C:02E6H         LINE#         185
  C:02E6H         LINE#         186
  C:02E6H         LINE#         187
  C:02E6H         LINE#         188
  C:02ECH         LINE#         190
  C:02F4H         LINE#         192
  C:02F4H         LINE#         193
  C:02FCH         LINE#         194
  C:0302H         LINE#         195
  C:0305H         LINE#         196
  C:030EH         LINE#         197
  C:0310H         LINE#         198
  C:0310H         LINE#         199
  C:0312H         LINE#         200
  C:0315H         LINE#         201
  C:0318H         LINE#         202
  C:0318H         LINE#         203
  C:031AH         LINE#         204
  C:031AH         LINE#         205
  C:0325H         LINE#         206
  C:0325H         LINE#         207
  C:0338H         LINE#         208
  C:034EH         LINE#         209
  C:035FH         LINE#         210
  C:036AH         LINE#         211
  C:0370H         LINE#         212
  C:0373H         LINE#         213
  C:0375H         LINE#         214
  C:0375H         LINE#         215
  C:0381H         LINE#         216
  C:0381H         LINE#         217
  C:0383H         LINE#         218
  C:0383H         LINE#         219
  C:0386H         LINE#         220
  C:0386H         LINE#         221
  C:0388H         LINE#         222
  C:0388H         LINE#         223
  C:0388H         LINE#         224
  C:0388H         LINE#         225
  C:038DH         LINE#         233
  C:038DH         LINE#         234
  C:038DH         LINE#         235
  C:038DH         LINE#         238
  C:038DH         LINE#         240
  C:0390H         LINE#         241
  C:0390H         LINE#         242
  C:0390H         LINE#         243
  C:0390H         LINE#         244
  C:0390H         LINE#         245
  C:0390H         LINE#         246
  C:0390H         LINE#         247
  C:0390H         LINE#         248
BL51 BANKED LINKER/LOCATER V6.22                                                      11/08/2019  16:56:36  PAGE 7


  C:0392H         LINE#         249
  C:0397H         LINE#         250
  C:039AH         LINE#         251
  C:039DH         LINE#         252
  C:03A0H         LINE#         253
  C:03A3H         LINE#         254
  C:03A5H         LINE#         255
  C:03A7H         LINE#         256
  C:03A9H         LINE#         257
  C:03AEH         LINE#         258
  C:03B0H         LINE#         259
  C:03B5H         LINE#         261
  C:03BEH         LINE#         263
  C:03C3H         LINE#         264
  C:03C6H         LINE#         265
  C:03C9H         LINE#         266
  C:03CCH         LINE#         267
  C:03CFH         LINE#         268
  C:03D2H         LINE#         269
  C:03D5H         LINE#         270
  C:03D8H         LINE#         271
  C:03DAH         LINE#         272
  C:03DAH         LINE#         273
  C:03DAH         LINE#         275
  C:03DDH         LINE#         276
  C:03DDH         LINE#         277
  -------         ENDPROC       USB_DEVICEINTERRUPT
  -------         PROC          INITUSB_DEVICE
  C:0003H         LINE#         286
  C:0003H         LINE#         287
  C:0005H         LINE#         288
  C:0008H         LINE#         289
  C:000BH         LINE#         290
  C:000EH         LINE#         291
  C:0014H         LINE#         292
  C:001AH         LINE#         293
  C:0020H         LINE#         294
  C:0023H         LINE#         295
  C:0026H         LINE#         296
  C:0029H         LINE#         297
  C:002BH         LINE#         298
  C:002EH         LINE#         299
  C:0031H         LINE#         300
  C:0034H         LINE#         301
  C:0037H         LINE#         302
  C:003AH         LINE#         303
  C:003CH         LINE#         304
  -------         ENDPROC       INITUSB_DEVICE
  -------         PROC          MAIN
  -------         DO            
  X:00F9H         SYMBOL        i
  -------         ENDDO         
  C:0BB7H         LINE#         306
  C:0BB7H         LINE#         308
  C:0BBAH         LINE#         309
  C:0BC1H         LINE#         310
  C:0BC4H         LINE#         312
BL51 BANKED LINKER/LOCATER V6.22                                                      11/08/2019  16:56:36  PAGE 8


  C:0BD7H         LINE#         314
  C:0BDAH         LINE#         315
  C:0BDCH         LINE#         316
  C:0BDCH         LINE#         317
  C:0BE4H         LINE#         318
  C:0BF1H         LINE#         320
  C:0C01H         LINE#         321
  C:0C1BH         LINE#         322
  C:0C2FH         LINE#         323
  C:0C32H         LINE#         324
  C:0C32H         LINE#         325
  -------         ENDPROC       MAIN
  -------         ENDMOD        VENDORDEFINEDDEV

  -------         MODULE        DEBUG
  C:0000H         SYMBOL        _ICE_DUMMY_
  D:0090H         PUBLIC        P1
  D:00B0H         PUBLIC        P3
  C:0C74H         PUBLIC        _CH554WDTModeSelect
  C:0A02H         PUBLIC        mInitSTDIO
  D:00E8H         PUBLIC        IE_EX
  D:00A8H         PUBLIC        IE
  C:0CC9H         PUBLIC        _CH554WDTFeed
  C:0CC5H         PUBLIC        CH554UART0Alter
  D:00B8H         PUBLIC        IP
  B:0098H.0       PUBLIC        RI
  B:0098H.1       PUBLIC        TI
  D:00FFH         PUBLIC        WDOG_COUNT
  D:00B9H         PUBLIC        CLOCK_CFG
  C:0C5BH         PUBLIC        _mDelaymS
  D:00D8H         PUBLIC        USB_INT_FG
  C:0C9DH         PUBLIC        _mDelayuS
  B:00C8H.5       PUBLIC        RCLK
  B:00C8H.4       PUBLIC        TCLK
  D:0099H         PUBLIC        SBUF
  D:0087H         PUBLIC        PCON
  D:0098H         PUBLIC        SCON
  D:0089H         PUBLIC        TMOD
  D:0088H         PUBLIC        TCON
  C:0C8BH         PUBLIC        CfgFsys
  D:00F8H         PUBLIC        SPI0_STAT
  C:0CBDH         PUBLIC        _CH554UART0SendByte
  D:008DH         PUBLIC        TH1
  B:0098H.7       PUBLIC        SM0
  B:0098H.6       PUBLIC        SM1
  B:0098H.5       PUBLIC        SM2
  B:0088H.6       PUBLIC        TR1
  C:0CB5H         PUBLIC        CH554UART0RcvByte
  D:0080H         PUBLIC        ADC_CTRL
  D:00A1H         PUBLIC        SAFE_MOD
  D:00B1H         PUBLIC        GLOBAL_CFG
  D:00C0H         PUBLIC        SCON1
  B:0098H.4       PUBLIC        REN
  D:00C9H         PUBLIC        T2MOD
  D:00C8H         PUBLIC        T2CON
  D:00C6H         PUBLIC        PIN_FUNC
  D:00D0H         PUBLIC        PSW
BL51 BANKED LINKER/LOCATER V6.22                                                      11/08/2019  16:56:36  PAGE 9


  -------         PROC          CFGFSYS
  C:0C8BH         LINE#         25
  C:0C8BH         LINE#         26
  C:0C8BH         LINE#         33
  C:0C8EH         LINE#         34
  C:0C91H         LINE#         42
  C:0C99H         LINE#         56
  C:0C9CH         LINE#         57
  -------         ENDPROC       CFGFSYS
  -------         PROC          _MDELAYUS
  D:0006H         SYMBOL        n
  C:0C9DH         LINE#         66
  C:0C9DH         LINE#         67
  C:0C9DH         LINE#         79
  C:0CA1H         LINE#         80
  C:0CA3H         LINE#         101
  C:0CA8H         LINE#         102
  C:0CAAH         LINE#         103
  -------         ENDPROC       _MDELAYUS
  -------         PROC          _MDELAYMS
  D:0004H         SYMBOL        n
  C:0C5BH         LINE#         112
  C:0C61H         LINE#         113
  C:0C61H         LINE#         114
  C:0C65H         LINE#         119
  C:0C6CH         LINE#         121
  C:0C71H         LINE#         122
  C:0C73H         LINE#         123
  -------         ENDPROC       _MDELAYMS
  -------         PROC          CH554UART0ALTER
  C:0CC5H         LINE#         132
  C:0CC5H         LINE#         133
  C:0CC5H         LINE#         134
  C:0CC8H         LINE#         135
  -------         ENDPROC       CH554UART0ALTER
  -------         PROC          MINITSTDIO
  -------         DO            
  X:00FAH         SYMBOL        x
  X:00FEH         SYMBOL        x2
  -------         ENDDO         
  C:0A02H         LINE#         145
  C:0A02H         LINE#         146
  C:0A02H         LINE#         150
  C:0A04H         LINE#         151
  C:0A06H         LINE#         152
  C:0A08H         LINE#         154
  C:0A0AH         LINE#         155
  C:0A0CH         LINE#         156
  C:0A0FH         LINE#         157
  C:0A19H         LINE#         158
  C:0A35H         LINE#         159
  C:0A52H         LINE#         160
  C:0A7AH         LINE#         162
  C:0A82H         LINE#         163
  C:0A85H         LINE#         164
  C:0A90H         LINE#         165
  C:0A92H         LINE#         166
BL51 BANKED LINKER/LOCATER V6.22                                                      11/08/2019  16:56:36  PAGE 10


  C:0A94H         LINE#         167
  C:0A96H         LINE#         168
  -------         ENDPROC       MINITSTDIO
  -------         PROC          CH554UART0RCVBYTE
  C:0CB5H         LINE#         177
  C:0CB5H         LINE#         178
  C:0CB5H         LINE#         179
  C:0CB8H         LINE#         180
  C:0CBAH         LINE#         181
  C:0CBCH         LINE#         182
  -------         ENDPROC       CH554UART0RCVBYTE
  -------         PROC          _CH554UART0SENDBYTE
  D:0007H         SYMBOL        SendDat
  C:0CBDH         LINE#         191
  C:0CBDH         LINE#         192
  C:0CBDH         LINE#         193
  C:0CBFH         LINE#         194
  C:0CC2H         LINE#         195
  C:0CC4H         LINE#         196
  -------         ENDPROC       _CH554UART0SENDBYTE
  -------         PROC          _CH554WDTMODESELECT
  D:0007H         SYMBOL        mode
  C:0C74H         LINE#         207
  C:0C74H         LINE#         208
  C:0C74H         LINE#         209
  C:0C77H         LINE#         210
  C:0C7AH         LINE#         211
  C:0C7DH         LINE#         212
  C:0C80H         LINE#         213
  C:0C82H         LINE#         214
  C:0C85H         LINE#         215
  C:0C88H         LINE#         216
  C:0C8AH         LINE#         217
  -------         ENDPROC       _CH554WDTMODESELECT
  -------         PROC          _CH554WDTFEED
  D:0007H         SYMBOL        tim
  C:0CC9H         LINE#         228
  C:0CC9H         LINE#         229
  C:0CC9H         LINE#         230
  C:0CCBH         LINE#         231
  -------         ENDPROC       _CH554WDTFEED
  -------         ENDMOD        DEBUG

  -------         MODULE        ?C?COPY
  C:081DH         PUBLIC        ?C?COPY
  -------         ENDMOD        ?C?COPY

  -------         MODULE        ?C?IILDX
  C:0843H         PUBLIC        ?C?IILDX
  -------         ENDMOD        ?C?IILDX

  -------         MODULE        ?C?ULDIV
  C:0895H         PUBLIC        ?C?ULDIV
  -------         ENDMOD        ?C?ULDIV

  -------         MODULE        ?C?LSTXDATA
  C:0927H         PUBLIC        ?C?LSTXDATA
BL51 BANKED LINKER/LOCATER V6.22                                                      11/08/2019  16:56:36  PAGE 11


  -------         ENDMOD        ?C?LSTXDATA

  -------         MODULE        ?C?LSTKXDATA
  C:0933H         PUBLIC        ?C?LSTKXDATA
  -------         ENDMOD        ?C?LSTKXDATA

  -------         MODULE        PRINTF
  X:00FAH         PUBLIC        ?_PRINTF517?BYTE
  X:00FAH         PUBLIC        ?_PRINTF?BYTE
  X:00FAH         PUBLIC        ?_SPRINTF517?BYTE
  X:00FAH         PUBLIC        ?_SPRINTF?BYTE
  C:0453H         PUBLIC        _PRINTF
  C:0453H         PUBLIC        _PRINTF517
  C:044DH         PUBLIC        _SPRINTF
  C:044DH         PUBLIC        _SPRINTF517
  -------         ENDMOD        PRINTF

  -------         MODULE        _GETKEY
  C:0CABH         PUBLIC        _GETKEY
  -------         ENDMOD        _GETKEY

  -------         MODULE        ?C?CLDPTR
  C:0964H         PUBLIC        ?C?CLDPTR
  -------         ENDMOD        ?C?CLDPTR

  -------         MODULE        ?C?CLDOPTR
  C:097DH         PUBLIC        ?C?CLDOPTR
  -------         ENDMOD        ?C?CLDOPTR

  -------         MODULE        ?C?CSTPTR
  C:09AAH         PUBLIC        ?C?CSTPTR
  -------         ENDMOD        ?C?CSTPTR

  -------         MODULE        ?C?PLDIXDATA
  C:09BCH         PUBLIC        ?C?PLDIXDATA
  -------         ENDMOD        ?C?PLDIXDATA

  -------         MODULE        ?C?PSTXDATA
  C:09D3H         PUBLIC        ?C?PSTXDATA
  -------         ENDMOD        ?C?PSTXDATA

  -------         MODULE        ?C?CCASE
  C:09DCH         PUBLIC        ?C?CCASE
  -------         ENDMOD        ?C?CCASE

  -------         MODULE        PUTCHAR
  C:0C34H         PUBLIC        _PUTCHAR
  -------         ENDMOD        PUTCHAR

*** WARNING L16: UNCALLED SEGMENT, IGNORED FOR OVERLAY PROCESS
    SEGMENT: ?PR?CH554UART0ALTER?DEBUG

*** WARNING L16: UNCALLED SEGMENT, IGNORED FOR OVERLAY PROCESS
    SEGMENT: ?PR?CH554UART0RCVBYTE?DEBUG

*** WARNING L16: UNCALLED SEGMENT, IGNORED FOR OVERLAY PROCESS
    SEGMENT: ?PR?_CH554UART0SENDBYTE?DEBUG
BL51 BANKED LINKER/LOCATER V6.22                                                      11/08/2019  16:56:36  PAGE 12



*** WARNING L16: UNCALLED SEGMENT, IGNORED FOR OVERLAY PROCESS
    SEGMENT: ?PR?_CH554WDTMODESELECT?DEBUG

*** WARNING L16: UNCALLED SEGMENT, IGNORED FOR OVERLAY PROCESS
    SEGMENT: ?PR?_CH554WDTFEED?DEBUG

*** WARNING L15: MULTIPLE CALL TO SEGMENT
    SEGMENT: ?PR?PRINTF?PRINTF
    CALLER1: ?PR?USB_DEVICEINTERRUPT?VENDORDEFINEDDEV
    CALLER2: ?C_C51STARTUP

Program Size: data=29.2 xdata=290 code=3275
LINK/LOCATE RUN COMPLETE.  6 WARNING(S),  0 ERROR(S)
