BL51 BANKED LINKER/LOCATER V6.22                                                        11/08/2019  18:23:07  PAGE 1


BL51 BANKED LINKER/LOCATER V6.22, INVOKED BY:
C:\KEIL_V5_C51\C51\BIN\BL51.EXE Debug.obj, CompatibilityHID.obj TO HID-1


MEMORY MODEL: LARGE


INPUT MODULES INCLUDED:
  Debug.obj (DEBUG)
  CompatibilityHID.obj (COMPATIBILITYHID)
  C:\KEIL_V5_C51\C51\LIB\C51L.LIB (?C_STARTUP)
  C:\KEIL_V5_C51\C51\LIB\C51L.LIB (?C?COPY)
  C:\KEIL_V5_C51\C51\LIB\C51L.LIB (?C?IILDX)
  C:\KEIL_V5_C51\C51\LIB\C51L.LIB (?C?ULDIV)
  C:\KEIL_V5_C51\C51\LIB\C51L.LIB (?C?LSTXDATA)
  C:\KEIL_V5_C51\C51\LIB\C51L.LIB (?C?LSTKXDATA)
  C:\KEIL_V5_C51\C51\LIB\C51L.LIB (PRINTF)
  C:\KEIL_V5_C51\C51\LIB\C51L.LIB (?C_INIT)
  C:\KEIL_V5_C51\C51\LIB\C51L.LIB (?C?CLDPTR)
  C:\KEIL_V5_C51\C51\LIB\C51L.LIB (?C?CLDOPTR)
  C:\KEIL_V5_C51\C51\LIB\C51L.LIB (?C?CSTPTR)
  C:\KEIL_V5_C51\C51\LIB\C51L.LIB (?C?PLDIXDATA)
  C:\KEIL_V5_C51\C51\LIB\C51L.LIB (?C?PSTXDATA)
  C:\KEIL_V5_C51\C51\LIB\C51L.LIB (?C?CCASE)
  C:\KEIL_V5_C51\C51\LIB\C51L.LIB (PUTCHAR)


LINK MAP OF MODULE:  HID-1 (DEBUG)


            TYPE    BASE      LENGTH    RELOCATION   SEGMENT NAME
            -----------------------------------------------------

            * * * * * * *   D A T A   M E M O R Y   * * * * * * *
            REG     0000H     0008H     ABSOLUTE     "REG BANK 0"
            REG     0008H     0008H     ABSOLUTE     "REG BANK 1"
            DATA    0010H     000AH     UNIT         _DATA_GROUP_
                    001AH     0006H                  *** GAP ***
            BIT     0020H.0   0002H.2   UNIT         _BIT_GROUP_
                    0022H.2   0000H.6                *** GAP ***
            IDATA   0023H     0001H     UNIT         ?STACK

            * * * * * * *  X D A T A   M E M O R Y  * * * * * * *
            XDATA   0000H     0042H     ABSOLUTE     
                    0042H     0002H                  *** GAP ***
            XDATA   0044H     0084H     ABSOLUTE     
            XDATA   00C8H     0052H     UNIT         ?XD?COMPATIBILITYHID
            XDATA   011AH     0051H     UNIT         _XDATA_GROUP_

            * * * * * * *   C O D E   M E M O R Y   * * * * * * *
            CODE    0000H     0003H     ABSOLUTE     
            CODE    0003H     003AH     UNIT         ?PR?USBDEVICEINIT?COMPATIBILITYHID
            CODE    003DH     0005H     UNIT         ?C_INITSEG
                    0042H     0001H                  *** GAP ***
            CODE    0043H     0003H     ABSOLUTE     
            CODE    0046H     0404H     UNIT         ?PR?DEVICEINTERRUPT?COMPATIBILITYHID
            CODE    044AH     0365H     UNIT         ?PR?PRINTF?PRINTF
            CODE    07AFH     02B5H     UNIT         ?C?LIB_CODE
BL51 BANKED LINKER/LOCATER V6.22                                                      11/08/2019  18:23:07  PAGE 2


            CODE    0A64H     009CH     UNIT         ?CO?COMPATIBILITYHID
            CODE    0B00H     0095H     UNIT         ?PR?MINITSTDIO?DEBUG
            CODE    0B95H     008CH     UNIT         ?C_C51STARTUP
            CODE    0C21H     0063H     UNIT         ?PR?MAIN?COMPATIBILITYHID
            CODE    0C84H     0027H     UNIT         ?PR?PUTCHAR?PUTCHAR
            CODE    0CABH     001AH     UNIT         ?PR?ENP2BLUKIN?COMPATIBILITYHID
            CODE    0CC5H     0019H     UNIT         ?PR?_MDELAYMS?DEBUG
            CODE    0CDEH     0017H     UNIT         ?PR?_CH554WDTMODESELECT?DEBUG
            CODE    0CF5H     0012H     UNIT         ?PR?CFGFSYS?DEBUG
            CODE    0D07H     000EH     UNIT         ?PR?_MDELAYUS?DEBUG
            CODE    0D15H     0008H     UNIT         ?PR?CH554UART0RCVBYTE?DEBUG
            CODE    0D1DH     0008H     UNIT         ?PR?_CH554UART0SENDBYTE?DEBUG
            CODE    0D25H     0004H     UNIT         ?PR?CH554UART0ALTER?DEBUG
            CODE    0D29H     0003H     UNIT         ?PR?_CH554WDTFEED?DEBUG



OVERLAY MAP OF MODULE:   HID-1 (DEBUG)


SEGMENT                                         BIT_GROUP          DATA_GROUP          XDATA_GROUP
  +--> CALLED SEGMENT                        START    LENGTH     START    LENGTH     START    LENGTH
----------------------------------------------------------------------------------------------------
?PR?DEVICEINTERRUPT?COMPATIBILITYHID         -----    -----      -----    -----      011AH    0001H
  +--> ?CO?COMPATIBILITYHID
  +--> ?PR?PRINTF?PRINTF

?PR?PRINTF?PRINTF                            0021H.1  0001H.1    0015H    0005H      0143H    0028H
  +--> ?PR?PUTCHAR?PUTCHAR

*** NEW ROOT ***************************************************

?C_C51STARTUP                                -----    -----      -----    -----      -----    -----
  +--> ?PR?MAIN?COMPATIBILITYHID
  +--> ?C_INITSEG

?PR?MAIN?COMPATIBILITYHID                    -----    -----      -----    -----      -----    -----
  +--> ?PR?CFGFSYS?DEBUG
  +--> ?PR?_MDELAYMS?DEBUG
  +--> ?PR?MINITSTDIO?DEBUG
  +--> ?CO?COMPATIBILITYHID
  +--> ?PR?PRINTF?PRINTF
  +--> ?PR?USBDEVICEINIT?COMPATIBILITYHID
  +--> ?PR?ENP2BLUKIN?COMPATIBILITYHID

?PR?_MDELAYMS?DEBUG                          -----    -----      -----    -----      -----    -----
  +--> ?PR?_MDELAYUS?DEBUG

?PR?MINITSTDIO?DEBUG                         -----    -----      -----    -----      0143H    0005H



SYMBOL TABLE OF MODULE:  HID-1 (DEBUG)

  VALUE           TYPE          NAME
  ----------------------------------

BL51 BANKED LINKER/LOCATER V6.22                                                      11/08/2019  18:23:07  PAGE 3


  -------         MODULE        DEBUG
  C:0000H         SYMBOL        _ICE_DUMMY_
  D:0090H         PUBLIC        P1
  D:00B0H         PUBLIC        P3
  C:0CDEH         PUBLIC        _CH554WDTModeSelect
  C:0B00H         PUBLIC        mInitSTDIO
  D:00E8H         PUBLIC        IE_EX
  D:00A8H         PUBLIC        IE
  C:0D29H         PUBLIC        _CH554WDTFeed
  C:0D25H         PUBLIC        CH554UART0Alter
  D:00B8H         PUBLIC        IP
  B:0098H.0       PUBLIC        RI
  B:0098H.1       PUBLIC        TI
  D:00FFH         PUBLIC        WDOG_COUNT
  D:00B9H         PUBLIC        CLOCK_CFG
  C:0CC5H         PUBLIC        _mDelaymS
  D:00D8H         PUBLIC        USB_INT_FG
  C:0D07H         PUBLIC        _mDelayuS
  B:00C8H.5       PUBLIC        RCLK
  B:00C8H.4       PUBLIC        TCLK
  D:0099H         PUBLIC        SBUF
  D:0087H         PUBLIC        PCON
  D:0098H         PUBLIC        SCON
  D:0089H         PUBLIC        TMOD
  D:0088H         PUBLIC        TCON
  C:0CF5H         PUBLIC        CfgFsys
  D:00F8H         PUBLIC        SPI0_STAT
  C:0D1DH         PUBLIC        _CH554UART0SendByte
  D:008DH         PUBLIC        TH1
  B:0098H.7       PUBLIC        SM0
  B:0098H.6       PUBLIC        SM1
  B:0098H.5       PUBLIC        SM2
  B:0088H.6       PUBLIC        TR1
  C:0D15H         PUBLIC        CH554UART0RcvByte
  D:0080H         PUBLIC        ADC_CTRL
  D:00A1H         PUBLIC        SAFE_MOD
  D:00B1H         PUBLIC        GLOBAL_CFG
  D:00C0H         PUBLIC        SCON1
  B:0098H.4       PUBLIC        REN
  D:00C9H         PUBLIC        T2MOD
  D:00C8H         PUBLIC        T2CON
  D:00C6H         PUBLIC        PIN_FUNC
  D:00D0H         PUBLIC        PSW
  -------         PROC          CFGFSYS
  C:0CF5H         LINE#         25
  C:0CF5H         LINE#         32
  C:0CF8H         LINE#         33
  C:0CFBH         LINE#         41
  C:0D03H         LINE#         55
  C:0D06H         LINE#         56
  -------         ENDPROC       CFGFSYS
  -------         PROC          _MDELAYUS
  D:0006H         SYMBOL        n
  C:0D07H         LINE#         65
  C:0D07H         LINE#         77
  C:0D0BH         LINE#         78
  C:0D0DH         LINE#         99
BL51 BANKED LINKER/LOCATER V6.22                                                      11/08/2019  18:23:07  PAGE 4


  C:0D12H         LINE#         100
  C:0D14H         LINE#         101
  -------         ENDPROC       _MDELAYUS
  -------         PROC          _MDELAYMS
  D:0004H         SYMBOL        n
  C:0CC5H         LINE#         110
  C:0CCBH         LINE#         111
  C:0CCFH         LINE#         116
  C:0CD6H         LINE#         118
  C:0CDBH         LINE#         119
  C:0CDDH         LINE#         120
  -------         ENDPROC       _MDELAYMS
  -------         PROC          CH554UART0ALTER
  C:0D25H         LINE#         129
  C:0D25H         LINE#         130
  C:0D28H         LINE#         131
  -------         ENDPROC       CH554UART0ALTER
  -------         PROC          MINITSTDIO
  -------         DO            
  X:0143H         SYMBOL        x
  X:0147H         SYMBOL        x2
  -------         ENDDO         
  C:0B00H         LINE#         141
  C:0B00H         LINE#         145
  C:0B02H         LINE#         146
  C:0B04H         LINE#         147
  C:0B06H         LINE#         149
  C:0B08H         LINE#         150
  C:0B0AH         LINE#         151
  C:0B0DH         LINE#         152
  C:0B17H         LINE#         153
  C:0B33H         LINE#         154
  C:0B50H         LINE#         155
  C:0B78H         LINE#         157
  C:0B80H         LINE#         158
  C:0B83H         LINE#         159
  C:0B8EH         LINE#         160
  C:0B90H         LINE#         161
  C:0B92H         LINE#         162
  C:0B94H         LINE#         163
  -------         ENDPROC       MINITSTDIO
  -------         PROC          CH554UART0RCVBYTE
  C:0D15H         LINE#         172
  C:0D15H         LINE#         173
  C:0D18H         LINE#         174
  C:0D1AH         LINE#         175
  C:0D1CH         LINE#         176
  -------         ENDPROC       CH554UART0RCVBYTE
  -------         PROC          _CH554UART0SENDBYTE
  D:0007H         SYMBOL        SendDat
  C:0D1DH         LINE#         185
  C:0D1DH         LINE#         186
  C:0D1FH         LINE#         187
  C:0D22H         LINE#         188
  C:0D24H         LINE#         189
  -------         ENDPROC       _CH554UART0SENDBYTE
  -------         PROC          _CH554WDTMODESELECT
BL51 BANKED LINKER/LOCATER V6.22                                                      11/08/2019  18:23:07  PAGE 5


  D:0007H         SYMBOL        mode
  C:0CDEH         LINE#         200
  C:0CDEH         LINE#         201
  C:0CE1H         LINE#         202
  C:0CE4H         LINE#         203
  C:0CE7H         LINE#         204
  C:0CEAH         LINE#         205
  C:0CEFH         LINE#         206
  C:0CF2H         LINE#         207
  C:0CF4H         LINE#         208
  -------         ENDPROC       _CH554WDTMODESELECT
  -------         PROC          _CH554WDTFEED
  D:0007H         SYMBOL        tim
  C:0D29H         LINE#         219
  C:0D29H         LINE#         220
  C:0D2BH         LINE#         221
  -------         ENDPROC       _CH554WDTFEED
  -------         ENDMOD        DEBUG

  -------         MODULE        COMPATIBILITYHID
  C:0000H         SYMBOL        _ICE_DUMMY_
  C:0ADEH         PUBLIC        HIDRepDesc
  D:0090H         PUBLIC        P1
  D:00E2H         PUBLIC        USB_CTRL
  D:00B0H         PUBLIC        P3
  X:00C8H         PUBLIC        UsbConfig
  B:00A8H.7       PUBLIC        EA
  B:00D8H.0       PUBLIC        UIF_BUS_RST
  X:00C9H         PUBLIC        Count
  D:00E8H         PUBLIC        IE_EX
  D:00A8H         PUBLIC        IE
  D:00DDH         PUBLIC        UEP0_T_LEN
  D:00E3H         PUBLIC        USB_DEV_AD
  D:00D3H         PUBLIC        UEP1_T_LEN
  D:00D5H         PUBLIC        UEP2_T_LEN
  C:0AB5H         PUBLIC        CfgDesc
  D:00B8H         PUBLIC        IP
  X:00CAH         PUBLIC        FLAG
  B:00D8H.6       PUBLIC        U_TOG_OK
  C:0CABH         PUBLIC        Enp2BlukIn
  C:0AA3H         PUBLIC        DevDesc
  D:00D8H         PUBLIC        USB_INT_FG
  C:0C21H         PUBLIC        main
  C:0046H         PUBLIC        DeviceInterrupt
  X:00CBH         PUBLIC        UserEp2Buf
  D:00E1H         PUBLIC        USB_INT_EN
  B:00D8H.1       PUBLIC        UIF_TRANSFER
  D:00DCH         PUBLIC        UEP0_CTRL
  D:00D2H         PUBLIC        UEP1_CTRL
  D:00D4H         PUBLIC        UEP2_CTRL
  D:0098H         PUBLIC        SCON
  X:010BH         PUBLIC        SetupLen
  D:0088H         PUBLIC        TCON
  D:00DBH         PUBLIC        USB_RX_LEN
  D:00F8H         PUBLIC        SPI0_STAT
  D:00DAH         PUBLIC        USB_MIS_ST
  X:010CH         PUBLIC        SetupReq
BL51 BANKED LINKER/LOCATER V6.22                                                      11/08/2019  18:23:07  PAGE 6


  D:00D9H         PUBLIC        USB_INT_ST
  X:0000H         PUBLIC        Ep0Buffer
  X:0044H         PUBLIC        Ep2Buffer
  B:0090H.5       PUBLIC        Ep2InKey
  D:00D1H         PUBLIC        UDEV_CTRL
  D:00ECH         PUBLIC        UEP0_DMA
  D:00E4H         PUBLIC        UEP2_DMA
  C:0003H         PUBLIC        USBDeviceInit
  B:00E8H.2       PUBLIC        IE_USB
  X:010DH         PUBLIC        SetupReqBuf
  D:0080H         PUBLIC        ADC_CTRL
  X:0115H         PUBLIC        Endp2Busy
  X:0116H         PUBLIC        pDescr
  D:00C0H         PUBLIC        SCON1
  D:00C8H         PUBLIC        T2CON
  B:00D8H.2       PUBLIC        UIF_SUSPEND
  D:00EBH         PUBLIC        UEP2_3_MOD
  D:00EAH         PUBLIC        UEP4_1_MOD
  X:0119H         PUBLIC        Ready
  D:00D0H         PUBLIC        PSW
  -------         PROC          USBDEVICEINIT
  C:0003H         LINE#         89
  C:0003H         LINE#         90
  C:0003H         LINE#         91
  C:0005H         LINE#         92
  C:0008H         LINE#         93
  C:000BH         LINE#         98
  C:000EH         LINE#         99
  C:0011H         LINE#         101
  C:0017H         LINE#         102
  C:001AH         LINE#         103
  C:001DH         LINE#         104
  C:0020H         LINE#         105
  C:0026H         LINE#         106
  C:0029H         LINE#         107
  C:002CH         LINE#         109
  C:002EH         LINE#         110
  C:0031H         LINE#         111
  C:0034H         LINE#         112
  C:0037H         LINE#         113
  C:003AH         LINE#         114
  C:003CH         LINE#         115
  -------         ENDPROC       USBDEVICEINIT
  -------         PROC          ENP2BLUKIN
  C:0CABH         LINE#         124
  C:0CABH         LINE#         125
  C:0CABH         LINE#         126
  C:0CBEH         LINE#         127
  C:0CC1H         LINE#         128
  C:0CC4H         LINE#         129
  -------         ENDPROC       ENP2BLUKIN
  -------         PROC          DEVICEINTERRUPT
  -------         DO            
  X:011AH         SYMBOL        len
  D:000FH         SYMBOL        i
  -------         ENDDO         
  C:0046H         LINE#         135
BL51 BANKED LINKER/LOCATER V6.22                                                      11/08/2019  18:23:07  PAGE 7


  C:0053H         LINE#         138
  C:0059H         LINE#         139
  C:0059H         LINE#         140
  C:0078H         LINE#         141
  C:0078H         LINE#         142
  C:0078H         LINE#         143
  C:007BH         LINE#         145
  C:0080H         LINE#         146
  C:0088H         LINE#         147
  C:008BH         LINE#         148
  C:008BH         LINE#         149
  C:0091H         LINE#         150
  C:0091H         LINE#         151
  C:0097H         LINE#         152
  C:00A3H         LINE#         153
  C:00A3H         LINE#         154
  C:00BCH         LINE#         155
  C:00BFH         LINE#         156
  C:00C1H         LINE#         157
  C:00C4H         LINE#         158
  C:00C4H         LINE#         159
  C:00C7H         LINE#         160
  C:00C7H         LINE#         161
  C:00CDH         LINE#         162
  C:00D5H         LINE#         163
  C:00D5H         LINE#         164
  C:00DDH         LINE#         165
  C:00E2H         LINE#         166
  C:00EAH         LINE#         167
  C:00F2H         LINE#         168
  C:00F2H         LINE#         169
  C:0107H         LINE#         170
  C:0107H         LINE#         171
  C:0107H         LINE#         172
  C:0115H         LINE#         173
  C:0122H         LINE#         174
  C:0122H         LINE#         175
  C:0125H         LINE#         176
  C:0127H         LINE#         178
  C:0127H         LINE#         179
  C:0129H         LINE#         180
  C:0129H         LINE#         181
  C:012BH         LINE#         182
  C:012BH         LINE#         183
  C:012BH         LINE#         184
  C:012BH         LINE#         185
  C:012BH         LINE#         186
  C:012BH         LINE#         187
  C:012BH         LINE#         188
  C:012BH         LINE#         189
  C:012BH         LINE#         190
  C:012BH         LINE#         191
  C:012BH         LINE#         192
  C:012BH         LINE#         193
  C:0131H         LINE#         194
  C:0131H         LINE#         195
  C:0131H         LINE#         196
BL51 BANKED LINKER/LOCATER V6.22                                                      11/08/2019  18:23:07  PAGE 8


  C:013EH         LINE#         197
  C:013EH         LINE#         198
  C:0140H         LINE#         199
  C:0140H         LINE#         200
  C:014FH         LINE#         201
  C:014FH         LINE#         202
  C:014FH         LINE#         203
  C:014FH         LINE#         204
  C:0152H         LINE#         206
  C:0152H         LINE#         207
  C:0186H         LINE#         208
  C:0186H         LINE#         209
  C:0186H         LINE#         210
  C:0196H         LINE#         211
  C:0196H         LINE#         212
  C:0196H         LINE#         213
  C:01A4H         LINE#         214
  C:01AAH         LINE#         215
  C:01ACH         LINE#         216
  C:01ACH         LINE#         217
  C:01BAH         LINE#         218
  C:01C0H         LINE#         219
  C:01C2H         LINE#         220
  C:01C2H         LINE#         221
  C:01D0H         LINE#         222
  C:01D6H         LINE#         223
  C:01D8H         LINE#         224
  C:01D8H         LINE#         225
  C:01DEH         LINE#         226
  C:01DEH         LINE#         227
  C:01DEH         LINE#         228
  C:01EBH         LINE#         229
  C:01EBH         LINE#         230
  C:01EDH         LINE#         231
  C:01EDH         LINE#         232
  C:0200H         LINE#         233
  C:0216H         LINE#         234
  C:0227H         LINE#         235
  C:0232H         LINE#         236
  C:0235H         LINE#         237
  C:0235H         LINE#         238
  C:023DH         LINE#         239
  C:0240H         LINE#         240
  C:0240H         LINE#         241
  C:0248H         LINE#         242
  C:0254H         LINE#         243
  C:0254H         LINE#         244
  C:0257H         LINE#         245
  C:0257H         LINE#         246
  C:0259H         LINE#         247
  C:0259H         LINE#         248
  C:0261H         LINE#         249
  C:0266H         LINE#         250
  C:0266H         LINE#         251
  C:026CH         LINE#         252
  C:026CH         LINE#         253
  C:026FH         LINE#         254
BL51 BANKED LINKER/LOCATER V6.22                                                      11/08/2019  18:23:07  PAGE 9


  C:026FH         LINE#         255
  C:026FH         LINE#         256
  C:026FH         LINE#         257
  C:0279H         LINE#         258
  C:0279H         LINE#         259
  C:0288H         LINE#         260
  C:0288H         LINE#         261
  C:0288H         LINE#         262
  C:0290H         LINE#         263
  C:0293H         LINE#         264
  C:0293H         LINE#         265
  C:029BH         LINE#         266
  C:029EH         LINE#         267
  C:029EH         LINE#         268
  C:02A1H         LINE#         269
  C:02A4H         LINE#         270
  C:02A4H         LINE#         273
  C:02A4H         LINE#         274
  C:02A4H         LINE#         276
  C:02A4H         LINE#         277
  C:02A4H         LINE#         278
  C:02A4H         LINE#         279
  C:02A7H         LINE#         280
  C:02A7H         LINE#         281
  C:02B0H         LINE#         282
  C:02B0H         LINE#         283
  C:02C0H         LINE#         284
  C:02C0H         LINE#         285
  C:02C7H         LINE#         286
  C:02C7H         LINE#         288
  C:02C7H         LINE#         290
  C:02C7H         LINE#         291
  C:02C7H         LINE#         292
  C:02C7H         LINE#         293
  C:02C9H         LINE#         295
  C:02C9H         LINE#         296
  C:02C9H         LINE#         297
  C:02C9H         LINE#         298
  C:02CBH         LINE#         299
  C:02D0H         LINE#         300
  C:02D0H         LINE#         301
  C:02DEH         LINE#         302
  C:02DEH         LINE#         303
  C:02F9H         LINE#         304
  C:02F9H         LINE#         305
  C:02F9H         LINE#         306
  C:0301H         LINE#         307
  C:0303H         LINE#         308
  C:0303H         LINE#         309
  C:030BH         LINE#         310
  C:030DH         LINE#         311
  C:030DH         LINE#         312
  C:0315H         LINE#         313
  C:0317H         LINE#         314
  C:0317H         LINE#         315
  C:0317H         LINE#         316
  C:0319H         LINE#         317
BL51 BANKED LINKER/LOCATER V6.22                                                      11/08/2019  18:23:07  PAGE 10


  C:0319H         LINE#         318
  C:0319H         LINE#         320
  C:0319H         LINE#         321
  C:0319H         LINE#         322
  C:0319H         LINE#         323
  C:031BH         LINE#         325
  C:031BH         LINE#         326
  C:031BH         LINE#         327
  C:031BH         LINE#         328
  C:031DH         LINE#         329
  C:031DH         LINE#         330
  C:0322H         LINE#         331
  C:0324H         LINE#         332
  C:0331H         LINE#         333
  C:0331H         LINE#         334
  C:0334H         LINE#         335
  C:0336H         LINE#         337
  C:0336H         LINE#         338
  C:0338H         LINE#         339
  C:0338H         LINE#         340
  C:033AH         LINE#         341
  C:033AH         LINE#         342
  C:033AH         LINE#         343
  C:033CH         LINE#         344
  C:033CH         LINE#         345
  C:033CH         LINE#         346
  C:033CH         LINE#         348
  C:033CH         LINE#         349
  C:0342H         LINE#         350
  C:0342H         LINE#         351
  C:034AH         LINE#         352
  C:034AH         LINE#         353
  C:0350H         LINE#         354
  C:0353H         LINE#         355
  C:0356H         LINE#         356
  C:035CH         LINE#         357
  C:035CH         LINE#         358
  C:035EH         LINE#         359
  C:035EH         LINE#         360
  C:0360H         LINE#         362
  C:0360H         LINE#         363
  C:0363H         LINE#         364
  C:0366H         LINE#         365
  C:0366H         LINE#         366
  C:0369H         LINE#         367
  C:0369H         LINE#         368
  C:0378H         LINE#         369
  C:0378H         LINE#         370
  C:0378H         LINE#         371
  C:0378H         LINE#         372
  C:038BH         LINE#         373
  C:03A1H         LINE#         374
  C:03B2H         LINE#         375
  C:03BDH         LINE#         376
  C:03C3H         LINE#         377
  C:03C6H         LINE#         378
  C:03C8H         LINE#         379
BL51 BANKED LINKER/LOCATER V6.22                                                      11/08/2019  18:23:07  PAGE 11


  C:03C8H         LINE#         380
  C:03D4H         LINE#         381
  C:03D4H         LINE#         382
  C:03D6H         LINE#         383
  C:03D6H         LINE#         384
  C:03D9H         LINE#         385
  C:03DCH         LINE#         386
  C:03DEH         LINE#         387
  C:03DEH         LINE#         388
  C:03DEH         LINE#         389
  C:03DEH         LINE#         390
  C:03E4H         LINE#         391
  C:03EBH         LINE#         392
  C:03EBH         LINE#         393
  C:03F1H         LINE#         394
  C:03F1H         LINE#         395
  C:03F7H         LINE#         396
  C:03F9H         LINE#         397
  C:03FFH         LINE#         398
  C:03FFH         LINE#         399
  C:0408H         LINE#         400
  C:0408H         LINE#         401
  C:0408H         LINE#         402
  C:040BH         LINE#         403
  C:040BH         LINE#         404
  C:040BH         LINE#         405
  C:040BH         LINE#         406
  C:040BH         LINE#         407
  C:040DH         LINE#         408
  C:040DH         LINE#         409
  C:0410H         LINE#         410
  C:0410H         LINE#         411
  C:0413H         LINE#         412
  C:0416H         LINE#         413
  C:0419H         LINE#         414
  C:041CH         LINE#         415
  C:041EH         LINE#         416
  C:0420H         LINE#         417
  C:0425H         LINE#         418
  C:0427H         LINE#         419
  C:0427H         LINE#         420
  C:042AH         LINE#         421
  C:042AH         LINE#         422
  C:042CH         LINE#         423
  C:0431H         LINE#         424
  C:0431H         LINE#         426
  C:043AH         LINE#         439
  C:043AH         LINE#         440
  C:043CH         LINE#         441
  C:043CH         LINE#         442
  C:043FH         LINE#         444
  C:043FH         LINE#         445
  -------         ENDPROC       DEVICEINTERRUPT
  -------         PROC          MAIN
  -------         DO            
  D:0007H         SYMBOL        i
  -------         ENDDO         
BL51 BANKED LINKER/LOCATER V6.22                                                      11/08/2019  18:23:07  PAGE 12


  C:0C21H         LINE#         447
  C:0C21H         LINE#         448
  C:0C21H         LINE#         450
  C:0C24H         LINE#         451
  C:0C2BH         LINE#         452
  C:0C2EH         LINE#         454
  C:0C37H         LINE#         456
  C:0C39H         LINE#         457
  C:0C39H         LINE#         458
  C:0C45H         LINE#         459
  C:0C4AH         LINE#         460
  C:0C4DH         LINE#         461
  C:0C4FH         LINE#         462
  C:0C52H         LINE#         463
  C:0C54H         LINE#         464
  C:0C58H         LINE#         465
  C:0C5CH         LINE#         466
  C:0C5CH         LINE#         467
  C:0C5CH         LINE#         468
  C:0C65H         LINE#         469
  C:0C65H         LINE#         470
  C:0C6BH         LINE#         471
  C:0C71H         LINE#         472
  C:0C74H         LINE#         473
  C:0C7BH         LINE#         474
  C:0C7BH         LINE#         475
  C:0C82H         LINE#         476
  -------         ENDPROC       MAIN
  -------         ENDMOD        COMPATIBILITYHID

  -------         MODULE        ?C?COPY
  C:087FH         PUBLIC        ?C?COPY
  -------         ENDMOD        ?C?COPY

  -------         MODULE        ?C?IILDX
  C:08A5H         PUBLIC        ?C?IILDX
  -------         ENDMOD        ?C?IILDX

  -------         MODULE        ?C?ULDIV
  C:08F7H         PUBLIC        ?C?ULDIV
  -------         ENDMOD        ?C?ULDIV

  -------         MODULE        ?C?LSTXDATA
  C:0989H         PUBLIC        ?C?LSTXDATA
  -------         ENDMOD        ?C?LSTXDATA

  -------         MODULE        ?C?LSTKXDATA
  C:0995H         PUBLIC        ?C?LSTKXDATA
  -------         ENDMOD        ?C?LSTKXDATA

  -------         MODULE        PRINTF
  X:0143H         PUBLIC        ?_PRINTF517?BYTE
  X:0143H         PUBLIC        ?_PRINTF?BYTE
  X:0143H         PUBLIC        ?_SPRINTF517?BYTE
  X:0143H         PUBLIC        ?_SPRINTF?BYTE
  C:04B5H         PUBLIC        _PRINTF
  C:04B5H         PUBLIC        _PRINTF517
BL51 BANKED LINKER/LOCATER V6.22                                                      11/08/2019  18:23:07  PAGE 13


  C:04AFH         PUBLIC        _SPRINTF
  C:04AFH         PUBLIC        _SPRINTF517
  -------         ENDMOD        PRINTF

  -------         MODULE        ?C?CLDPTR
  C:09C6H         PUBLIC        ?C?CLDPTR
  -------         ENDMOD        ?C?CLDPTR

  -------         MODULE        ?C?CLDOPTR
  C:09DFH         PUBLIC        ?C?CLDOPTR
  -------         ENDMOD        ?C?CLDOPTR

  -------         MODULE        ?C?CSTPTR
  C:0A0CH         PUBLIC        ?C?CSTPTR
  -------         ENDMOD        ?C?CSTPTR

  -------         MODULE        ?C?PLDIXDATA
  C:0A1EH         PUBLIC        ?C?PLDIXDATA
  -------         ENDMOD        ?C?PLDIXDATA

  -------         MODULE        ?C?PSTXDATA
  C:0A35H         PUBLIC        ?C?PSTXDATA
  -------         ENDMOD        ?C?PSTXDATA

  -------         MODULE        ?C?CCASE
  C:0A3EH         PUBLIC        ?C?CCASE
  -------         ENDMOD        ?C?CCASE

  -------         MODULE        PUTCHAR
  C:0C84H         PUBLIC        _PUTCHAR
  -------         ENDMOD        PUTCHAR

*** WARNING L16: UNCALLED SEGMENT, IGNORED FOR OVERLAY PROCESS
    SEGMENT: ?PR?CH554UART0ALTER?DEBUG

*** WARNING L16: UNCALLED SEGMENT, IGNORED FOR OVERLAY PROCESS
    SEGMENT: ?PR?CH554UART0RCVBYTE?DEBUG

*** WARNING L16: UNCALLED SEGMENT, IGNORED FOR OVERLAY PROCESS
    SEGMENT: ?PR?_CH554UART0SENDBYTE?DEBUG

*** WARNING L16: UNCALLED SEGMENT, IGNORED FOR OVERLAY PROCESS
    SEGMENT: ?PR?_CH554WDTMODESELECT?DEBUG

*** WARNING L16: UNCALLED SEGMENT, IGNORED FOR OVERLAY PROCESS
    SEGMENT: ?PR?_CH554WDTFEED?DEBUG

*** WARNING L15: MULTIPLE CALL TO SEGMENT
    SEGMENT: ?PR?PRINTF?PRINTF
    CALLER1: ?PR?DEVICEINTERRUPT?COMPATIBILITYHID
    CALLER2: ?C_C51STARTUP

Program Size: data=29.2 xdata=361 code=3371
LINK/LOCATE RUN COMPLETE.  6 WARNING(S),  0 ERROR(S)
